; Function Attrs: nounwind uwtable
define internal fastcc void @filter_params_free(ptr noundef %0) unnamed_addr #0 {
  %2 = load ptr, ptr %0, align 8, !tbaa !37
  %.not = icmp eq ptr %2, null
  br i1 %.not, label %32, label %.preheader

.preheader:                                       ; preds = %1
  %3 = getelementptr inbounds nuw i8, ptr %2, i64 40
  %4 = load i32, ptr %3, align 8, !tbaa !71
  %.not26 = icmp eq i32 %4, 0
  br i1 %.not26, label %._crit_edge, label %.lr.ph

.lr.ph:                                           ; preds = %.preheader
  %5 = getelementptr inbounds nuw i8, ptr %2, i64 32
  br label %10

._crit_edge:                                      ; preds = %pad_params_free.exit, %.preheader
  %6 = getelementptr inbounds nuw i8, ptr %2, i64 32
  tail call void @av_freep(ptr noundef nonnull %6) #7
  %7 = getelementptr inbounds nuw i8, ptr %2, i64 56
  %8 = load i32, ptr %7, align 8, !tbaa !72
  %.not27 = icmp eq i32 %8, 0
  br i1 %.not27, label %._crit_edge25, label %.lr.ph24

.lr.ph24:                                         ; preds = %._crit_edge
  %9 = getelementptr inbounds nuw i8, ptr %2, i64 48
  br label %23

10:                                               ; preds = %.lr.ph, %pad_params_free.exit
  %11 = phi i32 [ %4, %.lr.ph ], [ %16, %pad_params_free.exit ]
  %indvars.iv = phi i64 [ 0, %.lr.ph ], [ %indvars.iv.next, %pad_params_free.exit ]
  %12 = load ptr, ptr %5, align 8, !tbaa !73
  %13 = getelementptr inbounds nuw ptr, ptr %12, i64 %indvars.iv
  %14 = load ptr, ptr %13, align 8, !tbaa !74
  %.not.i = icmp eq ptr %14, null
  br i1 %.not.i, label %pad_params_free.exit, label %15

15:                                               ; preds = %10
  tail call void @av_freep(ptr noundef nonnull %14) #7
  tail call void @av_freep(ptr noundef nonnull %13) #7
  %.pre = load i32, ptr %3, align 8, !tbaa !71
  br label %pad_params_free.exit

pad_params_free.exit:                             ; preds = %10, %15
  %16 = phi i32 [ %11, %10 ], [ %.pre, %15 ]
  %indvars.iv.next = add nuw nsw i64 %indvars.iv, 1
  %17 = zext i32 %16 to i64
  %18 = icmp samesign ult i64 %indvars.iv.next, %17
  br i1 %18, label %10, label %._crit_edge, !llvm.loop !76

._crit_edge25:                                    ; preds = %pad_params_free.exit20, %._crit_edge
  %19 = getelementptr inbounds nuw i8, ptr %2, i64 48
  tail call void @av_freep(ptr noundef nonnull %19) #7
  %20 = getelementptr inbounds nuw i8, ptr %2, i64 24
  tail call void @av_dict_free(ptr noundef nonnull %20) #7
  %21 = getelementptr inbounds nuw i8, ptr %2, i64 8
  tail call void @av_freep(ptr noundef nonnull %21) #7
  %22 = getelementptr inbounds nuw i8, ptr %2, i64 16
  tail call void @av_freep(ptr noundef nonnull %22) #7
  tail call void @av_freep(ptr noundef nonnull %0) #7
  br label %32

23:                                               ; preds = %.lr.ph24, %pad_params_free.exit20
  %24 = phi i32 [ %8, %.lr.ph24 ], [ %29, %pad_params_free.exit20 ]
  %indvars.iv29 = phi i64 [ 0, %.lr.ph24 ], [ %indvars.iv.next30, %pad_params_free.exit20 ]
  %25 = load ptr, ptr %9, align 8, !tbaa !77
  %26 = getelementptr inbounds nuw ptr, ptr %25, i64 %indvars.iv29
  %27 = load ptr, ptr %26, align 8, !tbaa !74
  %.not.i19 = icmp eq ptr %27, null
  br i1 %.not.i19, label %pad_params_free.exit20, label %28

28:                                               ; preds = %23
  tail call void @av_freep(ptr noundef nonnull %27) #7
  tail call void @av_freep(ptr noundef nonnull %26) #7
  %.pre32 = load i32, ptr %7, align 8, !tbaa !72
  br label %pad_params_free.exit20

pad_params_free.exit20:                           ; preds = %23, %28
  %29 = phi i32 [ %24, %23 ], [ %.pre32, %28 ]
  %indvars.iv.next30 = add nuw nsw i64 %indvars.iv29, 1
  %30 = zext i32 %29 to i64
  %31 = icmp samesign ult i64 %indvars.iv.next30, %30
  br i1 %31, label %23, label %._crit_edge25, !llvm.loop !78

32:                                               ; preds = %1, %._crit_edge25
  ret void
}